#include <math.h>
#include <stdio.h>
#include <stdlib.h>
#include <string.h>

int main()
{
 	int i,j,k,d,n,t;
 	char a[100001]; 
 	scanf("%d",&n);
	for(i=0;i<n;i++)
	{
	    t=0; 
	 	scanf("%s",a); 
		for(j=0;j<strlen(a);j++)
		{
		    d=0; 
		 	for(k=0;k<strlen(a);k++)
			{
			 	if(a[k]==a[j])
                d++;
			}
			if(d==1)
			{ 
			    printf("%c\n",a[j]);
				t=1;
				break; 
			}
		}
		if(t==0) 
	    printf("no"); 
    } 
return 0;
} 
